target datalayout = "e-m:e-p270:32:32-p271:32:32-p272:64:64-i64:64-i128:128-f80:128-n8:16:32:64-S128"
target triple = "x86_64-pc-linux-gnu"

%class.G1NUMA = type { ptr, i32, ptr, i32, i64, i64, ptr }

; Function Attrs: mustprogress nounwind uwtable
define hidden noundef i64 @_ZNK6G1NUMA9page_sizeEv(ptr noundef nonnull align 8 dereferenceable(56) %0) #1 align 2 {
  %2 = alloca ptr, align 8
  store ptr %0, ptr %2, align 8
  %3 = load ptr, ptr %2, align 8
  %4 = getelementptr inbounds %class.G1NUMA, ptr %3, i32 0, i32 5
  %5 = load i64, ptr %4, align 8
  ret i64 %5
}

; Function Attrs: mustprogress nounwind uwtable
define hidden noundef i64 @_ZNK6G1NUMA11region_sizeEv(ptr noundef nonnull align 8 dereferenceable(56) %0) #1 align 2 {
  %2 = alloca ptr, align 8
  store ptr %0, ptr %2, align 8
  %3 = load ptr, ptr %2, align 8
  %4 = getelementptr inbounds %class.G1NUMA, ptr %3, i32 0, i32 4
  %5 = load i64, ptr %4, align 8
  ret i64 %5
}

; Function Attrs: mustprogress nounwind uwtable
define hidden noundef i32 @_ZNK6G1NUMA30preferred_node_index_for_indexEj(ptr noundef nonnull align 8 dereferenceable(56) %0, i32 noundef %1) #1 align 2 {
  %3 = alloca i32, align 4
  %4 = alloca ptr, align 8
  %5 = alloca i32, align 4
  %6 = alloca i64, align 8
  store ptr %0, ptr %4, align 8
  store i32 %1, ptr %5, align 4
  %7 = load ptr, ptr %4, align 8
  %8 = call noundef i64 @_ZNK6G1NUMA11region_sizeEv(ptr noundef nonnull align 8 dereferenceable(56) %7)
  %9 = call noundef i64 @_ZNK6G1NUMA9page_sizeEv(ptr noundef nonnull align 8 dereferenceable(56) %7)
  %10 = icmp uge i64 %8, %9
  br i1 %10, label %11, label %16

11:                                               ; preds = %2
  %12 = load i32, ptr %5, align 4
  %13 = getelementptr inbounds %class.G1NUMA, ptr %7, i32 0, i32 3
  %14 = load i32, ptr %13, align 8
  %15 = urem i32 %12, %14
  store i32 %15, ptr %3, align 4
  br label %29

16:                                               ; preds = %2
  %17 = call noundef i64 @_ZNK6G1NUMA9page_sizeEv(ptr noundef nonnull align 8 dereferenceable(56) %7)
  %18 = call noundef i64 @_ZNK6G1NUMA11region_sizeEv(ptr noundef nonnull align 8 dereferenceable(56) %7)
  %19 = udiv i64 %17, %18
  store i64 %19, ptr %6, align 8
  %20 = load i32, ptr %5, align 4
  %21 = zext i32 %20 to i64
  %22 = load i64, ptr %6, align 8
  %23 = udiv i64 %21, %22
  %24 = getelementptr inbounds %class.G1NUMA, ptr %7, i32 0, i32 3
  %25 = load i32, ptr %24, align 8
  %26 = zext i32 %25 to i64
  %27 = urem i64 %23, %26
  %28 = trunc i64 %27 to i32
  store i32 %28, ptr %3, align 4
  br label %29

29:                                               ; preds = %16, %11
  %30 = load i32, ptr %3, align 4
  ret i32 %30
}