; Function Attrs: mustprogress nofree norecurse nosync nounwind willreturn memory(argmem: read) uwtable
define hidden noundef i32 @_ZNK6G1NUMA30preferred_node_index_for_indexEj(ptr nocapture noundef nonnull readonly align 8 dereferenceable(56) %0, i32 noundef %1) local_unnamed_addr #0 align 2 {
  %3 = getelementptr inbounds i8, ptr %0, i64 32
  %4 = load i64, ptr %3, align 8
  %5 = getelementptr inbounds i8, ptr %0, i64 40
  %6 = load i64, ptr %5, align 8
  %.not = icmp ult i64 %4, %6
  br i1 %.not, label %11, label %7

7:                                                ; preds = %2
  %8 = getelementptr inbounds i8, ptr %0, i64 24
  %9 = load i32, ptr %8, align 8
  %10 = urem i32 %1, %9
  br label %18

11:                                               ; preds = %2
  %12 = udiv i64 %6, %4
  %13 = zext i32 %1 to i64
  %14 = udiv i64 %13, %12
  %15 = getelementptr inbounds i8, ptr %0, i64 24
  %16 = load i32, ptr %15, align 8
  %.lhs.trunc = trunc nuw i64 %14 to i32
  %17 = urem i32 %.lhs.trunc, %16
  br label %18

18:                                               ; preds = %11, %7
  %.0 = phi i32 [ %10, %7 ], [ %17, %11 ]
  ret i32 %.0
}